; Function Attrs: mustprogress uwtable
define dso_local void @_Z7GetInfoIjEvPN32pxrInternal_v0_24__pxrReserved__7VtArrayIT_EEPNSt7__cxx1112basic_stringIcSt11char_traitsIcESaIcEEE(ptr noundef %0, ptr noundef nonnull %1) local_unnamed_addr #3 personality ptr @__gxx_personality_v0 {
  %3 = alloca %"class.pxrInternal_v0_24__pxrReserved__::VtArray.81", align 8
  %4 = tail call noundef nonnull align 8 dereferenceable(32) ptr @_ZNSt7__cxx1112basic_stringIcSt11char_traitsIcESaIcEEaSEPKc(ptr noundef nonnull align 8 dereferenceable(32) %1, ptr noundef nonnull @.str.58)
  call void @_ZN32pxrInternal_v0_24__pxrReserved__7VtArrayIjEC1Em(ptr noundef nonnull align 8 dereferenceable(40) %3, i64 noundef 3)
  %5 = invoke noundef nonnull align 8 dereferenceable(40) ptr @_ZN32pxrInternal_v0_24__pxrReserved__7VtArrayIjEaSEOS1_(ptr noundef nonnull align 8 dereferenceable(40) %0, ptr noundef nonnull align 8 dereferenceable(40) %3)
          to label %6 unwind label %10

6:                                                ; preds = %2
  call void @_ZN32pxrInternal_v0_24__pxrReserved__7VtArrayIjED1Ev(ptr noundef nonnull align 8 dereferenceable(40) %3) #25
  %7 = call noundef nonnull align 4 dereferenceable(4) ptr @_ZN32pxrInternal_v0_24__pxrReserved__7VtArrayIjEixEm(ptr noundef nonnull align 8 dereferenceable(40) %0, i64 noundef 0)
  store i32 1, ptr %7, align 4
  %8 = call noundef nonnull align 4 dereferenceable(4) ptr @_ZN32pxrInternal_v0_24__pxrReserved__7VtArrayIjEixEm(ptr noundef nonnull align 8 dereferenceable(40) %0, i64 noundef 1)
  store i32 2, ptr %8, align 4
  %9 = call noundef nonnull align 4 dereferenceable(4) ptr @_ZN32pxrInternal_v0_24__pxrReserved__7VtArrayIjEixEm(ptr noundef nonnull align 8 dereferenceable(40) %0, i64 noundef 2)
  store i32 3, ptr %9, align 4
  ret void

10:                                               ; preds = %2
  %11 = landingpad { ptr, i32 }
          cleanup
  call void @_ZN32pxrInternal_v0_24__pxrReserved__7VtArrayIjED1Ev(ptr noundef nonnull align 8 dereferenceable(40) %3) #25
  resume { ptr, i32 } %11
}